; Function Attrs: mustprogress nounwind uwtable
define dso_local noundef ptr @_ZN4llvm10emitMemChrEPNS_5ValueES1_S1_RNS_13IRBuilderBaseERKNS_10DataLayoutEPKNS_17TargetLibraryInfoE(ptr noundef %0, ptr noundef %1, ptr noundef %2, ptr noundef nonnull align 8 dereferenceable(128) %3, ptr nocapture noundef nonnull readnone align 8 dereferenceable(512) %4, ptr noundef %5) local_unnamed_addr #0 {
  %7 = alloca [3 x ptr], align 8
  %8 = alloca [3 x ptr], align 8
  %9 = getelementptr inbounds nuw i8, ptr %3, i64 72
  %10 = load ptr, ptr %9, align 8
  %11 = tail call noundef ptr @_ZN4llvm11PointerType3getERNS_11LLVMContextEj(ptr noundef nonnull align 8 dereferenceable(8) %10, i32 noundef 0) #7
  %.val = load ptr, ptr %9, align 8
  %.val14 = load ptr, ptr %5, align 8
  %12 = getelementptr i8, ptr %.val14, i64 156
  %.val14.val = load i32, ptr %12, align 4
  %13 = tail call noundef ptr @_ZN4llvm4Type9getIntNTyERNS_11LLVMContextEj(ptr noundef nonnull align 8 dereferenceable(8) %.val, i32 noundef %.val14.val) #7
  %14 = getelementptr inbounds nuw i8, ptr %3, i64 48
  %15 = load ptr, ptr %14, align 8
  %16 = tail call noundef ptr @_ZNK4llvm10BasicBlock9getModuleEv(ptr noundef nonnull align 8 dereferenceable(80) %15) #7
  %17 = load ptr, ptr %5, align 8
  %18 = tail call noundef i32 @_ZNK4llvm21TargetLibraryInfoImpl12getSizeTSizeERKNS_6ModuleE(ptr noundef nonnull align 8 dereferenceable(208) %17, ptr noundef nonnull align 8 dereferenceable(857) %16) #7
  %19 = load ptr, ptr %9, align 8
  %20 = tail call noundef ptr @_ZN4llvm4Type9getIntNTyERNS_11LLVMContextEj(ptr noundef nonnull align 8 dereferenceable(8) %19, i32 noundef %18) #7
  store ptr %11, ptr %7, align 8
  %21 = getelementptr inbounds i8, ptr %7, i64 8
  store ptr %13, ptr %21, align 8
  %22 = getelementptr inbounds i8, ptr %7, i64 16
  store ptr %20, ptr %22, align 8
  store ptr %0, ptr %8, align 8
  %23 = getelementptr inbounds i8, ptr %8, i64 8
  store ptr %1, ptr %23, align 8
  %24 = getelementptr inbounds i8, ptr %8, i64 16
  store ptr %2, ptr %24, align 8
  %25 = call fastcc noundef ptr @_ZL11emitLibCallN4llvm7LibFuncEPNS_4TypeENS_8ArrayRefIS2_EENS3_IPNS_5ValueEEERNS_13IRBuilderBaseEPKNS_17TargetLibraryInfoEb(i32 noundef 347, ptr noundef %11, ptr nonnull %7, i64 3, ptr nonnull %8, i64 3, ptr noundef nonnull align 8 dereferenceable(128) %3, ptr noundef nonnull %5, i1 noundef zeroext false)
  ret ptr %25
}